; Function Attrs: mustprogress uwtable
define noundef zeroext i1 @_ZN2cv5utils2fs11isDirectoryERKNSt7__cxx1112basic_stringIcSt11char_traitsIcESaIcEEE(ptr noundef nonnull align 8 dereferenceable(32) %0) local_unnamed_addr #0 personality ptr @__gxx_personality_v0 {
  %2 = alloca %struct.stat, align 8
  %3 = alloca %"class.cv::utils::trace::details::Region", align 8
  call void @_ZN2cv5utils5trace7details6RegionC1ERKNS3_21LocationStaticStorageE(ptr noundef nonnull align 8 dereferenceable(12) %3, ptr noundef nonnull align 8 dereferenceable(32) @_ZZN2cv5utils2fs11isDirectoryERKNSt7__cxx1112basic_stringIcSt11char_traitsIcESaIcEEEE25__cv_trace_location_fn181)
  call void @llvm.lifetime.start.p0(i64 144, ptr nonnull %2)
  %4 = call noundef ptr @_ZNKSt7__cxx1112basic_stringIcSt11char_traitsIcESaIcEE5c_strEv(ptr noundef nonnull align 8 dereferenceable(32) %0) #12
  %5 = call i32 @stat(ptr noundef %4, ptr noundef nonnull %2) #12
  %6 = getelementptr inbounds i8, ptr %2, i64 24
  %7 = load i32, ptr %6, align 8
  call void @llvm.lifetime.end.p0(i64 144, ptr nonnull %2)
  %8 = getelementptr inbounds i8, ptr %3, i64 8
  %9 = load i32, ptr %8, align 8
  %.not.i1 = icmp eq i32 %9, 0
  br i1 %.not.i1, label %_ZN2cv5utils5trace7details6RegionD2Ev.exit, label %10

10:                                               ; preds = %1
  invoke void @_ZN2cv5utils5trace7details6Region7destroyEv(ptr noundef nonnull align 8 dereferenceable(12) %3)
          to label %_ZN2cv5utils5trace7details6RegionD2Ev.exit unwind label %11

11:                                               ; preds = %10
  %12 = landingpad { ptr, i32 }
          catch ptr null
  %13 = extractvalue { ptr, i32 } %12, 0
  call void @__clang_call_terminate(ptr %13) #13
  unreachable

_ZN2cv5utils5trace7details6RegionD2Ev.exit:       ; preds = %1, %10
  %.not.i = icmp eq i32 %5, 0
  %14 = and i32 %7, 61440
  %15 = icmp eq i32 %14, 16384
  %.0.i = select i1 %.not.i, i1 %15, i1 false
  ret i1 %.0.i
}